; Function Attrs: mustprogress uwtable
define hidden void @_ZN6google8protobuf8compiler3cpp22QualifiedExtensionNameB5cxx11EPKNS0_15FieldDescriptorERKNS2_7OptionsE(ptr noalias sret(%"class.std::__cxx11::basic_string") align 8 %agg.result, ptr nocapture noundef readonly %d, ptr nocapture noundef nonnull readnone align 8 dereferenceable(206) %options) local_unnamed_addr #4 personality ptr @__gxx_personality_v0 {
entry:
  %ref.tmp = alloca %"class.std::__cxx11::basic_string", align 8
  %file_.i = getelementptr inbounds i8, ptr %d, i64 16
  %0 = load ptr, ptr %file_.i, align 8
  call void @_ZN6google8protobuf8compiler3cpp13ExtensionNameB5cxx11EPKNS0_15FieldDescriptorE(ptr nonnull sret(%"class.std::__cxx11::basic_string") align 8 %ref.tmp, ptr noundef nonnull %d)
  %call1 = call { i64, ptr } @_ZNKSt7__cxx1112basic_stringIcSt11char_traitsIcESaIcEEcvSt17basic_string_viewIcS2_EEv(ptr noundef nonnull align 8 dereferenceable(32) %ref.tmp) #26
  %1 = extractvalue { i64, ptr } %call1, 0
  %2 = extractvalue { i64, ptr } %call1, 1
  invoke void @_ZN6google8protobuf8compiler3cpp24QualifiedFileLevelSymbolB5cxx11EPKNS0_14FileDescriptorESt17basic_string_viewIcSt11char_traitsIcEERKNS2_7OptionsE(ptr sret(%"class.std::__cxx11::basic_string") align 8 %agg.result, ptr noundef %0, i64 %1, ptr %2, ptr nonnull align 8 poison)
          to label %invoke.cont unwind label %lpad

invoke.cont:                                      ; preds = %entry
  call void @_ZNSt7__cxx1112basic_stringIcSt11char_traitsIcESaIcEED1Ev(ptr noundef nonnull align 8 dereferenceable(32) %ref.tmp) #26
  ret void

lpad:                                             ; preds = %entry
  %3 = landingpad { ptr, i32 }
          cleanup
  call void @_ZNSt7__cxx1112basic_stringIcSt11char_traitsIcESaIcEED1Ev(ptr noundef nonnull align 8 dereferenceable(32) %ref.tmp) #26
  resume { ptr, i32 } %3
}